; Function Attrs: nounwind uwtable
define void @Ivy_NodeAssignRandom(ptr noundef readonly captures(none) %0, ptr noundef readonly captures(none) %1) local_unnamed_addr #2 {
  %3 = getelementptr inbounds nuw i8, ptr %0, i64 40
  %4 = load i32, ptr %3, align 8, !tbaa !96
  %5 = icmp sgt i32 %4, 0
  br i1 %5, label %.lr.ph, label %._crit_edge

.lr.ph:                                           ; preds = %2
  %6 = getelementptr i8, ptr %1, i64 32
  %.val = load ptr, ptr %6, align 8, !tbaa !103
  %7 = getelementptr inbounds nuw i8, ptr %.val, i64 32
  br label %8

8:                                                ; preds = %.lr.ph, %8
  %indvars.iv = phi i64 [ 0, %.lr.ph ], [ %indvars.iv.next, %8 ]
  %9 = tail call i32 @rand() #26
  %10 = shl i32 %9, 24
  %11 = tail call i32 @rand() #26
  %12 = shl i32 %11, 12
  %13 = xor i32 %12, %10
  %14 = tail call i32 @rand() #26
  %15 = xor i32 %13, %14
  %16 = getelementptr inbounds nuw [0 x i32], ptr %7, i64 0, i64 %indvars.iv
  store i32 %15, ptr %16, align 4, !tbaa !38
  %indvars.iv.next = add nuw nsw i64 %indvars.iv, 1
  %17 = load i32, ptr %3, align 8, !tbaa !96
  %18 = sext i32 %17 to i64
  %19 = icmp slt i64 %indvars.iv.next, %18
  br i1 %19, label %8, label %._crit_edge, !llvm.loop !112

._crit_edge:                                      ; preds = %8, %2
  ret void
}